; Function Attrs: nounwind uwtable
define void @Sfm_DecPrepareVec(ptr noundef readonly captures(none) %0, ptr noundef readonly captures(none) %1, i32 noundef %2, ptr noundef captures(none) initializes((4, 8)) %3) local_unnamed_addr #2 {
  %5 = getelementptr inbounds nuw i8, ptr %3, i64 4
  store i32 0, ptr %5, align 4, !tbaa !85
  %6 = icmp sgt i32 %2, 0
  br i1 %6, label %.lr.ph, label %._crit_edge

.lr.ph:                                           ; preds = %4
  %7 = getelementptr i8, ptr %0, i64 8
  %.phi.trans.insert.i = getelementptr inbounds nuw i8, ptr %3, i64 8
  %wide.trip.count = zext nneg i32 %2 to i64
  br label %8

8:                                                ; preds = %.lr.ph, %Vec_IntPush.exit
  %indvars.iv = phi i64 [ 0, %.lr.ph ], [ %indvars.iv.next, %Vec_IntPush.exit ]
  %9 = getelementptr inbounds nuw i32, ptr %1, i64 %indvars.iv
  %10 = load i32, ptr %9, align 4, !tbaa !96
  %.val = load ptr, ptr %7, align 8, !tbaa !84
  %11 = sext i32 %10 to i64
  %12 = getelementptr inbounds i32, ptr %.val, i64 %11
  %13 = load i32, ptr %12, align 4, !tbaa !96
  %14 = load i32, ptr %5, align 4, !tbaa !85
  %15 = load i32, ptr %3, align 8, !tbaa !86
  %16 = icmp eq i32 %14, %15
  br i1 %16, label %17, label %.Vec_IntGrow.exit10_crit_edge.i

.Vec_IntGrow.exit10_crit_edge.i:                  ; preds = %8
  %.pre.i = load ptr, ptr %.phi.trans.insert.i, align 8, !tbaa !84
  br label %Vec_IntPush.exit

17:                                               ; preds = %8
  %18 = icmp slt i32 %14, 16
  br i1 %18, label %19, label %26

19:                                               ; preds = %17
  %20 = load ptr, ptr %.phi.trans.insert.i, align 8, !tbaa !84
  %.not9.i.i = icmp eq ptr %20, null
  br i1 %.not9.i.i, label %23, label %21

21:                                               ; preds = %19
  %22 = tail call dereferenceable_or_null(64) ptr @realloc(ptr noundef nonnull %20, i64 noundef 64) #26
  br label %Vec_IntGrow.exit.i

23:                                               ; preds = %19
  %24 = tail call noalias dereferenceable_or_null(64) ptr @malloc(i64 noundef 64) #27
  br label %Vec_IntGrow.exit.i

Vec_IntGrow.exit.i:                               ; preds = %23, %21
  %25 = phi ptr [ %22, %21 ], [ %24, %23 ]
  store ptr %25, ptr %.phi.trans.insert.i, align 8, !tbaa !84
  store i32 16, ptr %3, align 8, !tbaa !86
  br label %Vec_IntPush.exit

26:                                               ; preds = %17
  %27 = shl nuw nsw i32 %14, 1
  %28 = load ptr, ptr %.phi.trans.insert.i, align 8, !tbaa !84
  %.not9.i9.i = icmp eq ptr %28, null
  %29 = zext nneg i32 %27 to i64
  %30 = shl nuw nsw i64 %29, 2
  br i1 %.not9.i9.i, label %33, label %31

31:                                               ; preds = %26
  %32 = tail call ptr @realloc(ptr noundef nonnull %28, i64 noundef %30) #26
  br label %35

33:                                               ; preds = %26
  %34 = tail call noalias ptr @malloc(i64 noundef %30) #27
  br label %35

35:                                               ; preds = %33, %31
  %36 = phi ptr [ %32, %31 ], [ %34, %33 ]
  store ptr %36, ptr %.phi.trans.insert.i, align 8, !tbaa !84
  store i32 %27, ptr %3, align 8, !tbaa !86
  br label %Vec_IntPush.exit

Vec_IntPush.exit:                                 ; preds = %.Vec_IntGrow.exit10_crit_edge.i, %Vec_IntGrow.exit.i, %35
  %37 = phi ptr [ %.pre.i, %.Vec_IntGrow.exit10_crit_edge.i ], [ %36, %35 ], [ %25, %Vec_IntGrow.exit.i ]
  %38 = load i32, ptr %5, align 4, !tbaa !85
  %39 = add nsw i32 %38, 1
  store i32 %39, ptr %5, align 4, !tbaa !85
  %40 = sext i32 %38 to i64
  %41 = getelementptr inbounds i32, ptr %37, i64 %40
  store i32 %13, ptr %41, align 4, !tbaa !96
  %indvars.iv.next = add nuw nsw i64 %indvars.iv, 1
  %exitcond.not = icmp eq i64 %indvars.iv.next, %wide.trip.count
  br i1 %exitcond.not, label %._crit_edge, label %8, !llvm.loop !132

._crit_edge:                                      ; preds = %Vec_IntPush.exit, %4
  ret void
}